; Function Attrs: mustprogress uwtable
define hidden void @_ZN10duckdb_re28Compiler9AddSuffixEi(ptr noundef nonnull align 8 captures(none) dereferenceable(228) %0, i32 noundef %1) local_unnamed_addr #0 align 2 {
  %3 = getelementptr inbounds nuw i8, ptr %0, i64 104
  %4 = load i8, ptr %3, align 8, !tbaa !49, !range !56, !noundef !57
  %5 = trunc nuw i8 %4 to i1
  br i1 %5, label %25, label %6

6:                                                ; preds = %2
  %7 = getelementptr inbounds nuw i8, ptr %0, i64 208
  %8 = load i32, ptr %7, align 8, !tbaa !79
  %9 = icmp eq i32 %8, 0
  br i1 %9, label %.sink.split, label %10

10:                                               ; preds = %6
  %11 = getelementptr inbounds nuw i8, ptr %0, i64 108
  %12 = load i32, ptr %11, align 4, !tbaa !50
  %13 = icmp eq i32 %12, 1
  br i1 %13, label %14, label %16

14:                                               ; preds = %10
  %15 = tail call noundef i32 @_ZN10duckdb_re28Compiler18AddSuffixRecursiveEii(ptr noundef nonnull align 8 dereferenceable(228) %0, i32 noundef %8, i32 noundef %1)
  br label %.sink.split

16:                                               ; preds = %10
  %17 = tail call noundef i32 @_ZN10duckdb_re28Compiler9AllocInstEi(ptr noundef nonnull align 8 dereferenceable(228) %0, i32 noundef 1)
  %18 = icmp slt i32 %17, 0
  br i1 %18, label %.sink.split, label %19

19:                                               ; preds = %16
  %20 = zext nneg i32 %17 to i64
  %21 = getelementptr inbounds nuw i8, ptr %0, i64 128
  %22 = load ptr, ptr %21, align 8, !tbaa !55
  %23 = getelementptr inbounds nuw %"class.duckdb_re2::Prog::Inst", ptr %22, i64 %20
  %24 = load i32, ptr %7, align 8, !tbaa !79
  tail call void @_ZN10duckdb_re24Prog4Inst7InitAltEjj(ptr noundef nonnull align 4 dereferenceable(8) %23, i32 noundef %24, i32 noundef %1)
  br label %.sink.split

.sink.split:                                      ; preds = %19, %16, %6, %14
  %storemerge.sink = phi i32 [ %15, %14 ], [ %1, %6 ], [ %17, %19 ], [ 0, %16 ]
  store i32 %storemerge.sink, ptr %7, align 8, !tbaa !79
  br label %25

25:                                               ; preds = %.sink.split, %2
  ret void
}